target datalayout = "e-m:e-p270:32:32-p271:32:32-p272:64:64-i64:64-i128:128-f80:128-n8:16:32:64-S128"
target triple = "x86_64-pc-linux-gnu"

%struct.HeapTupleData = type { i32, %struct.ItemPointerData, i32, ptr }
%struct.ItemPointerData = type { %struct.BlockIdData, i16 }
%struct.BlockIdData = type { i16, i16 }
%struct.RelationData = type { %struct.RelFileLocator, ptr, i32, i32, i8, i8, i8, i8, i8, i32, i32, i32, i32, ptr, ptr, i32, %struct.LockInfoData, ptr, ptr, ptr, ptr, ptr, i8, ptr, ptr, ptr, ptr, ptr, ptr, i32, ptr, i8, ptr, ptr, i32, i8, i32, ptr, i8, ptr, ptr, ptr, ptr, ptr, ptr, ptr, i32, ptr, ptr, ptr, ptr, ptr, ptr, ptr, ptr, ptr, ptr, ptr, ptr, ptr, ptr, ptr, ptr, ptr, ptr, ptr, i32, i8, ptr }
%struct.RelFileLocator = type { i32, i32, i32 }
%struct.LockInfoData = type { %struct.LockRelId }
%struct.LockRelId = type { i32, i32 }
%struct.FormData_pg_class = type { i32, %struct.nameData, i32, i32, i32, i32, i32, i32, i32, i32, float, i32, i32, i8, i8, i8, i8, i16, i16, i8, i8, i8, i8, i8, i8, i8, i8, i32, i32, i32 }
%struct.nameData = type { [64 x i8] }
%struct.HeapTupleHeaderData = type { %union.anon.1, %struct.ItemPointerData, i16, i16, i8, [0 x i8] }
%union.anon.1 = type { %struct.HeapTupleFields }
%struct.HeapTupleFields = type { i32, i32, %union.anon.2 }
%union.anon.2 = type { i32 }
%struct.TupleDescData = type { i32, i32, i32, i32, ptr, [0 x %struct.CompactAttribute] }
%struct.CompactAttribute = type { i32, i16, i8, i8, i8, i8, i8, i8, i8 }

@wal_level = external global i32, align 4

; Function Attrs: inlinehint nounwind uwtable
define internal zeroext i1 @HeapTupleHasExternal(ptr noundef %0) #3 {
  %2 = alloca ptr, align 8
  store ptr %0, ptr %2, align 8
  %3 = load ptr, ptr %2, align 8
  %4 = getelementptr inbounds nuw %struct.HeapTupleData, ptr %3, i32 0, i32 3
  %5 = load ptr, ptr %4, align 8
  %6 = getelementptr inbounds nuw %struct.HeapTupleHeaderData, ptr %5, i32 0, i32 3
  %7 = load i16, ptr %6, align 4
  %8 = zext i16 %7 to i32
  %9 = and i32 %8, 4
  %10 = icmp ne i32 %9, 0
  ret i1 %10
}

; Function Attrs: nounwind uwtable
define internal ptr @ExtractReplicaIdentity(ptr noundef %0, ptr noundef %1, i1 noundef zeroext %2, ptr noundef %3) #0 {
  %5 = alloca ptr, align 8
  %6 = alloca ptr, align 8
  %7 = alloca ptr, align 8
  %8 = alloca i8, align 1
  %9 = alloca ptr, align 8
  %10 = alloca ptr, align 8
  %11 = alloca i8, align 1
  %12 = alloca ptr, align 8
  %13 = alloca ptr, align 8
  %14 = alloca [1600 x i8], align 16
  %15 = alloca [1600 x i64], align 16
  %16 = alloca i32, align 4
  %17 = alloca i32, align 4
  %18 = alloca ptr, align 8
  store ptr %0, ptr %6, align 8
  store ptr %1, ptr %7, align 8
  %19 = zext i1 %2 to i8
  store i8 %19, ptr %8, align 1
  store ptr %3, ptr %9, align 8
  call void @llvm.lifetime.start.p0(i64 8, ptr %10) #10
  %20 = load ptr, ptr %6, align 8
  %21 = getelementptr inbounds nuw %struct.RelationData, ptr %20, i32 0, i32 14
  %22 = load ptr, ptr %21, align 8
  store ptr %22, ptr %10, align 8
  call void @llvm.lifetime.start.p0(i64 1, ptr %11) #10
  %23 = load ptr, ptr %6, align 8
  %24 = getelementptr inbounds nuw %struct.RelationData, ptr %23, i32 0, i32 13
  %25 = load ptr, ptr %24, align 8
  %26 = getelementptr inbounds nuw %struct.FormData_pg_class, ptr %25, i32 0, i32 25
  %27 = load i8, ptr %26, align 2
  store i8 %27, ptr %11, align 1
  call void @llvm.lifetime.start.p0(i64 8, ptr %12) #10
  call void @llvm.lifetime.start.p0(i64 8, ptr %13) #10
  call void @llvm.lifetime.start.p0(i64 1600, ptr %14) #10
  call void @llvm.lifetime.start.p0(i64 12800, ptr %15) #10
  %28 = load ptr, ptr %9, align 8
  store i8 0, ptr %28, align 1
  %29 = load i32, ptr @wal_level, align 4
  %30 = icmp sge i32 %29, 2
  br i1 %30, label %31, label %63

31:                                               ; preds = %4
  %32 = load ptr, ptr %6, align 8
  %33 = getelementptr inbounds nuw %struct.RelationData, ptr %32, i32 0, i32 13
  %34 = load ptr, ptr %33, align 8
  %35 = getelementptr inbounds nuw %struct.FormData_pg_class, ptr %34, i32 0, i32 15
  %36 = load i8, ptr %35, align 2
  %37 = sext i8 %36 to i32
  %38 = icmp eq i32 %37, 112
  br i1 %38, label %39, label %63

39:                                               ; preds = %31
  %40 = load i32, ptr @wal_level, align 4
  %41 = icmp sge i32 %40, 1
  br i1 %41, label %52, label %42

42:                                               ; preds = %39
  %43 = load ptr, ptr %6, align 8
  %44 = getelementptr inbounds nuw %struct.RelationData, ptr %43, i32 0, i32 9
  %45 = load i32, ptr %44, align 8
  %46 = icmp eq i32 %45, 0
  br i1 %46, label %47, label %63

47:                                               ; preds = %42
  %48 = load ptr, ptr %6, align 8
  %49 = getelementptr inbounds nuw %struct.RelationData, ptr %48, i32 0, i32 11
  %50 = load i32, ptr %49, align 8
  %51 = icmp eq i32 %50, 0
  br i1 %51, label %52, label %63

52:                                               ; preds = %47, %39
  %53 = load ptr, ptr %6, align 8
  %54 = getelementptr inbounds nuw %struct.RelationData, ptr %53, i32 0, i32 13
  %55 = load ptr, ptr %54, align 8
  %56 = getelementptr inbounds nuw %struct.FormData_pg_class, ptr %55, i32 0, i32 16
  %57 = load i8, ptr %56, align 1
  %58 = sext i8 %57 to i32
  %59 = icmp ne i32 %58, 102
  br i1 %59, label %60, label %63

60:                                               ; preds = %52
  %61 = load ptr, ptr %6, align 8
  %62 = call zeroext i1 @IsCatalogRelation(ptr noundef %61)
  br i1 %62, label %63, label %64

63:                                               ; preds = %60, %52, %47, %42, %31, %4
  store ptr null, ptr %5, align 8
  store i32 1, ptr %16, align 4
  br label %137

64:                                               ; preds = %60
  %65 = load i8, ptr %11, align 1
  %66 = sext i8 %65 to i32
  %67 = icmp eq i32 %66, 110
  br i1 %67, label %68, label %69

68:                                               ; preds = %64
  store ptr null, ptr %5, align 8
  store i32 1, ptr %16, align 4
  br label %137

69:                                               ; preds = %64
  %70 = load i8, ptr %11, align 1
  %71 = sext i8 %70 to i32
  %72 = icmp eq i32 %71, 102
  br i1 %72, label %73, label %83

73:                                               ; preds = %69
  %74 = load ptr, ptr %7, align 8
  %75 = call zeroext i1 @HeapTupleHasExternal(ptr noundef %74)
  br i1 %75, label %76, label %81

76:                                               ; preds = %73
  %77 = load ptr, ptr %9, align 8
  store i8 1, ptr %77, align 1
  %78 = load ptr, ptr %7, align 8
  %79 = load ptr, ptr %10, align 8
  %80 = call ptr @toast_flatten_tuple(ptr noundef %78, ptr noundef %79)
  store ptr %80, ptr %7, align 8
  br label %81

81:                                               ; preds = %76, %73
  %82 = load ptr, ptr %7, align 8
  store ptr %82, ptr %5, align 8
  store i32 1, ptr %16, align 4
  br label %137

83:                                               ; preds = %69
  %84 = load i8, ptr %8, align 1, !range !4, !noundef !5
  %85 = trunc i8 %84 to i1
  br i1 %85, label %87, label %86

86:                                               ; preds = %83
  store ptr null, ptr %5, align 8
  store i32 1, ptr %16, align 4
  br label %137

87:                                               ; preds = %83
  %88 = load ptr, ptr %6, align 8
  %89 = call ptr @RelationGetIndexAttrBitmap(ptr noundef %88, i32 noundef 2)
  store ptr %89, ptr %12, align 8
  %90 = load ptr, ptr %12, align 8
  %91 = icmp eq ptr %90, null
  br i1 %91, label %92, label %93

92:                                               ; preds = %87
  store ptr null, ptr %5, align 8
  store i32 1, ptr %16, align 4
  br label %137

93:                                               ; preds = %87
  %94 = load ptr, ptr %7, align 8
  %95 = load ptr, ptr %10, align 8
  %96 = getelementptr inbounds [1600 x i64], ptr %15, i64 0, i64 0
  %97 = getelementptr inbounds [1600 x i8], ptr %14, i64 0, i64 0
  call void @heap_deform_tuple(ptr noundef %94, ptr noundef %95, ptr noundef %96, ptr noundef %97)
  call void @llvm.lifetime.start.p0(i64 4, ptr %17) #10
  store i32 0, ptr %17, align 4
  br label %98

98:                                               ; preds = %117, %93
  %99 = load i32, ptr %17, align 4
  %100 = load ptr, ptr %10, align 8
  %101 = getelementptr inbounds nuw %struct.TupleDescData, ptr %100, i32 0, i32 0
  %102 = load i32, ptr %101, align 8
  %103 = icmp slt i32 %99, %102
  br i1 %103, label %105, label %104

104:                                              ; preds = %98
  store i32 2, ptr %16, align 4
  call void @llvm.lifetime.end.p0(i64 4, ptr %17) #10
  br label %120

105:                                              ; preds = %98
  %106 = load i32, ptr %17, align 4
  %107 = add i32 %106, 1
  %108 = sub i32 %107, -7
  %109 = load ptr, ptr %12, align 8
  %110 = call zeroext i1 @bms_is_member(i32 noundef %108, ptr noundef %109)
  br i1 %110, label %111, label %112

111:                                              ; preds = %105
  br label %116

112:                                              ; preds = %105
  %113 = load i32, ptr %17, align 4
  %114 = sext i32 %113 to i64
  %115 = getelementptr inbounds [1600 x i8], ptr %14, i64 0, i64 %114
  store i8 1, ptr %115, align 1
  br label %116

116:                                              ; preds = %112, %111
  br label %117

117:                                              ; preds = %116
  %118 = load i32, ptr %17, align 4
  %119 = add i32 %118, 1
  store i32 %119, ptr %17, align 4
  br label %98, !llvm.loop !18

120:                                              ; preds = %104
  %121 = load ptr, ptr %10, align 8
  %122 = getelementptr inbounds [1600 x i64], ptr %15, i64 0, i64 0
  %123 = getelementptr inbounds [1600 x i8], ptr %14, i64 0, i64 0
  %124 = call ptr @heap_form_tuple(ptr noundef %121, ptr noundef %122, ptr noundef %123)
  store ptr %124, ptr %13, align 8
  %125 = load ptr, ptr %9, align 8
  store i8 1, ptr %125, align 1
  %126 = load ptr, ptr %12, align 8
  call void @bms_free(ptr noundef %126)
  %127 = load ptr, ptr %13, align 8
  %128 = call zeroext i1 @HeapTupleHasExternal(ptr noundef %127)
  br i1 %128, label %129, label %135

129:                                              ; preds = %120
  call void @llvm.lifetime.start.p0(i64 8, ptr %18) #10
  %130 = load ptr, ptr %13, align 8
  store ptr %130, ptr %18, align 8
  %131 = load ptr, ptr %18, align 8
  %132 = load ptr, ptr %10, align 8
  %133 = call ptr @toast_flatten_tuple(ptr noundef %131, ptr noundef %132)
  store ptr %133, ptr %13, align 8
  %134 = load ptr, ptr %18, align 8
  call void @heap_freetuple(ptr noundef %134)
  call void @llvm.lifetime.end.p0(i64 8, ptr %18) #10
  br label %135

135:                                              ; preds = %129, %120
  %136 = load ptr, ptr %13, align 8
  store ptr %136, ptr %5, align 8
  store i32 1, ptr %16, align 4
  br label %137

137:                                              ; preds = %135, %92, %86, %81, %68, %63
  call void @llvm.lifetime.end.p0(i64 12800, ptr %15) #10
  call void @llvm.lifetime.end.p0(i64 1600, ptr %14) #10
  call void @llvm.lifetime.end.p0(i64 8, ptr %13) #10
  call void @llvm.lifetime.end.p0(i64 8, ptr %12) #10
  call void @llvm.lifetime.end.p0(i64 1, ptr %11) #10
  call void @llvm.lifetime.end.p0(i64 8, ptr %10) #10
  %138 = load ptr, ptr %5, align 8
  ret ptr %138
}