; Function Attrs: nounwind uwtable
define internal fastcc ptr @ExtractReplicaIdentity(ptr noundef %0, ptr noundef nonnull %1, i1 noundef zeroext %2, ptr noundef nonnull writeonly captures(none) initializes((0, 1)) %3) unnamed_addr #2 {
  %5 = alloca [1600 x i8], align 16
  %6 = alloca [1600 x i64], align 16
  %7 = getelementptr inbounds nuw i8, ptr %0, i64 64
  %8 = load ptr, ptr %7, align 8
  %9 = getelementptr inbounds nuw i8, ptr %0, i64 56
  %10 = load ptr, ptr %9, align 8
  %11 = getelementptr inbounds nuw i8, ptr %10, i64 126
  %12 = load i8, ptr %11, align 2
  call void @llvm.lifetime.start.p0(i64 1600, ptr nonnull %5) #13
  call void @llvm.lifetime.start.p0(i64 12800, ptr nonnull %6) #13
  store i8 0, ptr %3, align 1
  %13 = load i32, ptr @wal_level, align 4
  %14 = icmp sgt i32 %13, 1
  br i1 %14, label %15, label %54

15:                                               ; preds = %4
  %16 = load ptr, ptr %9, align 8
  %17 = getelementptr inbounds nuw i8, ptr %16, i64 114
  %18 = load i8, ptr %17, align 2
  %19 = icmp eq i8 %18, 112
  br i1 %19, label %20, label %54

20:                                               ; preds = %15
  %21 = getelementptr inbounds nuw i8, ptr %16, i64 115
  %22 = load i8, ptr %21, align 1
  %.not = icmp eq i8 %22, 102
  br i1 %.not, label %54, label %23

23:                                               ; preds = %20
  %24 = tail call zeroext i1 @IsCatalogRelation(ptr noundef nonnull %0) #13
  br i1 %24, label %54, label %25

25:                                               ; preds = %23
  switch i8 %12, label %32 [
    i8 110, label %54
    i8 102, label %26
  ]

26:                                               ; preds = %25
  %27 = getelementptr i8, ptr %1, i64 16
  %.val = load ptr, ptr %27, align 8
  %28 = getelementptr i8, ptr %.val, i64 20
  %.val.val = load i16, ptr %28, align 4
  %29 = and i16 %.val.val, 4
  %.not42 = icmp eq i16 %29, 0
  br i1 %.not42, label %54, label %30

30:                                               ; preds = %26
  store i8 1, ptr %3, align 1
  %31 = tail call ptr @toast_flatten_tuple(ptr noundef nonnull %1, ptr noundef %8) #13
  br label %54

32:                                               ; preds = %25
  br i1 %2, label %33, label %54

33:                                               ; preds = %32
  %34 = tail call ptr @RelationGetIndexAttrBitmap(ptr noundef nonnull %0, i32 noundef 2) #13
  %35 = icmp eq ptr %34, null
  br i1 %35, label %54, label %36

36:                                               ; preds = %33
  call void @heap_deform_tuple(ptr noundef nonnull %1, ptr noundef %8, ptr noundef nonnull %6, ptr noundef nonnull %5) #13
  %37 = load i32, ptr %8, align 8
  %38 = icmp sgt i32 %37, 0
  br i1 %38, label %.lr.ph, label %._crit_edge

._crit_edge:                                      ; preds = %48, %36
  %39 = call ptr @heap_form_tuple(ptr noundef nonnull %8, ptr noundef nonnull %6, ptr noundef nonnull %5) #13
  store i8 1, ptr %3, align 1
  call void @bms_free(ptr noundef nonnull %34) #13
  %40 = getelementptr i8, ptr %39, i64 16
  %.val41 = load ptr, ptr %40, align 8
  %41 = getelementptr i8, ptr %.val41, i64 20
  %.val41.val = load i16, ptr %41, align 4
  %42 = and i16 %.val41.val, 4
  %.not43 = icmp eq i16 %42, 0
  br i1 %.not43, label %54, label %52

.lr.ph:                                           ; preds = %36, %48
  %indvars.iv = phi i64 [ %indvars.iv.next, %48 ], [ 0, %36 ]
  %indvars.iv.next = add nuw nsw i64 %indvars.iv, 1
  %43 = trunc i64 %indvars.iv to i32
  %44 = add i32 %43, 8
  %45 = call zeroext i1 @bms_is_member(i32 noundef %44, ptr noundef nonnull %34) #13
  br i1 %45, label %48, label %46

46:                                               ; preds = %.lr.ph
  %47 = getelementptr inbounds nuw [1600 x i8], ptr %5, i64 0, i64 %indvars.iv
  store i8 1, ptr %47, align 1
  br label %48

48:                                               ; preds = %46, %.lr.ph
  %49 = load i32, ptr %8, align 8
  %50 = sext i32 %49 to i64
  %51 = icmp slt i64 %indvars.iv.next, %50
  br i1 %51, label %.lr.ph, label %._crit_edge, !llvm.loop !24

52:                                               ; preds = %._crit_edge
  %53 = call ptr @toast_flatten_tuple(ptr noundef nonnull %39, ptr noundef nonnull %8) #13
  call void @heap_freetuple(ptr noundef nonnull %39) #13
  br label %54

54:                                               ; preds = %._crit_edge, %52, %33, %32, %26, %30, %25, %4, %15, %20, %23
  %.0 = phi ptr [ null, %23 ], [ null, %20 ], [ null, %15 ], [ null, %4 ], [ null, %25 ], [ %31, %30 ], [ %1, %26 ], [ null, %32 ], [ null, %33 ], [ %53, %52 ], [ %39, %._crit_edge ]
  call void @llvm.lifetime.end.p0(i64 12800, ptr nonnull %6) #13
  call void @llvm.lifetime.end.p0(i64 1600, ptr nonnull %5) #13
  ret ptr %.0
}